
Allocating common symbols
Common symbol       size              file

TM_USART_Buffer     0x20              ..\obj\tm_stm32f4_usart.o

Discarded input sections

 .text          0x00000000        0x0 ..\obj\stm32f4xx_usart.o
 .data          0x00000000        0x0 ..\obj\stm32f4xx_usart.o
 .bss           0x00000000        0x0 ..\obj\stm32f4xx_usart.o
 .text.USART_DeInit
                0x00000000      0x100 ..\obj\stm32f4xx_usart.o
 .text.USART_StructInit
                0x00000000       0x44 ..\obj\stm32f4xx_usart.o
 .text.USART_ClockInit
                0x00000000       0x54 ..\obj\stm32f4xx_usart.o
 .text.USART_ClockStructInit
                0x00000000       0x34 ..\obj\stm32f4xx_usart.o
 .text.USART_SetPrescaler
                0x00000000       0x38 ..\obj\stm32f4xx_usart.o
 .text.USART_OverSampling8Cmd
                0x00000000       0x48 ..\obj\stm32f4xx_usart.o
 .text.USART_OneBitMethodCmd
                0x00000000       0x40 ..\obj\stm32f4xx_usart.o
 .text.USART_ReceiveData
                0x00000000       0x24 ..\obj\stm32f4xx_usart.o
 .text.USART_SetAddress
                0x00000000       0x38 ..\obj\stm32f4xx_usart.o
 .text.USART_ReceiverWakeUpCmd
                0x00000000       0x40 ..\obj\stm32f4xx_usart.o
 .text.USART_WakeUpConfig
                0x00000000       0x38 ..\obj\stm32f4xx_usart.o
 .text.USART_LINBreakDetectLengthConfig
                0x00000000       0x38 ..\obj\stm32f4xx_usart.o
 .text.USART_LINCmd
                0x00000000       0x40 ..\obj\stm32f4xx_usart.o
 .text.USART_SendBreak
                0x00000000       0x24 ..\obj\stm32f4xx_usart.o
 .text.USART_HalfDuplexCmd
                0x00000000       0x40 ..\obj\stm32f4xx_usart.o
 .text.USART_SetGuardTime
                0x00000000       0x3c ..\obj\stm32f4xx_usart.o
 .text.USART_SmartCardCmd
                0x00000000       0x40 ..\obj\stm32f4xx_usart.o
 .text.USART_SmartCardNACKCmd
                0x00000000       0x40 ..\obj\stm32f4xx_usart.o
 .text.USART_IrDAConfig
                0x00000000       0x38 ..\obj\stm32f4xx_usart.o
 .text.USART_IrDACmd
                0x00000000       0x40 ..\obj\stm32f4xx_usart.o
 .text.USART_DMACmd
                0x00000000       0x48 ..\obj\stm32f4xx_usart.o
 .text.USART_ClearFlag
                0x00000000       0x24 ..\obj\stm32f4xx_usart.o
 .text.USART_ClearITPendingBit
                0x00000000       0x44 ..\obj\stm32f4xx_usart.o
 .text          0x00000000        0x0 ..\obj\tm_stm32f4_disco.o
 .data          0x00000000        0x0 ..\obj\tm_stm32f4_disco.o
 .bss           0x00000000        0x0 ..\obj\tm_stm32f4_disco.o
 .text.TM_DISCO_LedInit
                0x00000000       0x48 ..\obj\tm_stm32f4_disco.o
 .text.TM_DISCO_ButtonInit
                0x00000000       0x48 ..\obj\tm_stm32f4_disco.o
 .text.TM_DISCO_LedOn
                0x00000000       0x28 ..\obj\tm_stm32f4_disco.o
 .text.TM_DISCO_LedOff
                0x00000000       0x28 ..\obj\tm_stm32f4_disco.o
 .text.TM_DISCO_ButtonPressed
                0x00000000       0x1c ..\obj\tm_stm32f4_disco.o
 .debug_info    0x00000000      0x349 ..\obj\tm_stm32f4_disco.o
 .debug_abbrev  0x00000000      0x12a ..\obj\tm_stm32f4_disco.o
 .debug_loc     0x00000000      0x10c ..\obj\tm_stm32f4_disco.o
 .debug_aranges
                0x00000000       0x40 ..\obj\tm_stm32f4_disco.o
 .debug_ranges  0x00000000       0x30 ..\obj\tm_stm32f4_disco.o
 .debug_line    0x00000000      0x2d0 ..\obj\tm_stm32f4_disco.o
 .debug_str     0x00000000      0x36e ..\obj\tm_stm32f4_disco.o
 .comment       0x00000000       0x71 ..\obj\tm_stm32f4_disco.o
 .ARM.attributes
                0x00000000       0x33 ..\obj\tm_stm32f4_disco.o
 .debug_frame   0x00000000       0xac ..\obj\tm_stm32f4_disco.o
 .text          0x00000000        0x0 ..\obj\startup_stm32f4xx.o
 .data          0x00000000        0x0 ..\obj\startup_stm32f4xx.o
 .bss           0x00000000        0x0 ..\obj\startup_stm32f4xx.o
 .text          0x00000000        0x0 ..\obj\main.o
 .data          0x00000000        0x0 ..\obj\main.o
 .bss           0x00000000        0x4 ..\obj\main.o
 .text          0x00000000        0x0 ..\obj\stm32f4xx_rcc.o
 .bss           0x00000000        0x0 ..\obj\stm32f4xx_rcc.o
 .text.RCC_DeInit
                0x00000000       0x84 ..\obj\stm32f4xx_rcc.o
 .text.RCC_AdjustHSICalibrationValue
                0x00000000       0x48 ..\obj\stm32f4xx_rcc.o
 .text.RCC_HSICmd
                0x00000000       0x20 ..\obj\stm32f4xx_rcc.o
 .text.RCC_LSEConfig
                0x00000000       0x60 ..\obj\stm32f4xx_rcc.o
 .text.RCC_LSICmd
                0x00000000       0x20 ..\obj\stm32f4xx_rcc.o
 .text.RCC_PLLConfig
                0x00000000       0x48 ..\obj\stm32f4xx_rcc.o
 .text.RCC_PLLCmd
                0x00000000       0x20 ..\obj\stm32f4xx_rcc.o
 .text.RCC_PLLI2SConfig
                0x00000000       0x30 ..\obj\stm32f4xx_rcc.o
 .text.RCC_PLLI2SCmd
                0x00000000       0x20 ..\obj\stm32f4xx_rcc.o
 .text.RCC_ClockSecuritySystemCmd
                0x00000000       0x20 ..\obj\stm32f4xx_rcc.o
 .text.RCC_MCO1Config
                0x00000000       0x48 ..\obj\stm32f4xx_rcc.o
 .text.RCC_MCO2Config
                0x00000000       0x48 ..\obj\stm32f4xx_rcc.o
 .text.RCC_SYSCLKConfig
                0x00000000       0x40 ..\obj\stm32f4xx_rcc.o
 .text.RCC_GetSYSCLKSource
                0x00000000       0x20 ..\obj\stm32f4xx_rcc.o
 .text.RCC_HCLKConfig
                0x00000000       0x40 ..\obj\stm32f4xx_rcc.o
 .text.RCC_PCLK1Config
                0x00000000       0x40 ..\obj\stm32f4xx_rcc.o
 .text.RCC_PCLK2Config
                0x00000000       0x44 ..\obj\stm32f4xx_rcc.o
 .text.RCC_RTCCLKConfig
                0x00000000       0x74 ..\obj\stm32f4xx_rcc.o
 .text.RCC_RTCCLKCmd
                0x00000000       0x20 ..\obj\stm32f4xx_rcc.o
 .text.RCC_BackupResetCmd
                0x00000000       0x20 ..\obj\stm32f4xx_rcc.o
 .text.RCC_I2SCLKConfig
                0x00000000       0x20 ..\obj\stm32f4xx_rcc.o
 .text.RCC_AHB2PeriphClockCmd
                0x00000000       0x54 ..\obj\stm32f4xx_rcc.o
 .text.RCC_AHB3PeriphClockCmd
                0x00000000       0x54 ..\obj\stm32f4xx_rcc.o
 .text.RCC_APB1PeriphClockCmd
                0x00000000       0x54 ..\obj\stm32f4xx_rcc.o
 .text.RCC_AHB1PeriphResetCmd
                0x00000000       0x54 ..\obj\stm32f4xx_rcc.o
 .text.RCC_AHB2PeriphResetCmd
                0x00000000       0x54 ..\obj\stm32f4xx_rcc.o
 .text.RCC_AHB3PeriphResetCmd
                0x00000000       0x54 ..\obj\stm32f4xx_rcc.o
 .text.RCC_APB1PeriphResetCmd
                0x00000000       0x54 ..\obj\stm32f4xx_rcc.o
 .text.RCC_APB2PeriphResetCmd
                0x00000000       0x54 ..\obj\stm32f4xx_rcc.o
 .text.RCC_AHB1PeriphClockLPModeCmd
                0x00000000       0x54 ..\obj\stm32f4xx_rcc.o
 .text.RCC_AHB2PeriphClockLPModeCmd
                0x00000000       0x54 ..\obj\stm32f4xx_rcc.o
 .text.RCC_AHB3PeriphClockLPModeCmd
                0x00000000       0x54 ..\obj\stm32f4xx_rcc.o
 .text.RCC_APB1PeriphClockLPModeCmd
                0x00000000       0x54 ..\obj\stm32f4xx_rcc.o
 .text.RCC_APB2PeriphClockLPModeCmd
                0x00000000       0x54 ..\obj\stm32f4xx_rcc.o
 .text.RCC_ITConfig
                0x00000000       0x60 ..\obj\stm32f4xx_rcc.o
 .text.RCC_ClearFlag
                0x00000000       0x24 ..\obj\stm32f4xx_rcc.o
 .text.RCC_GetITStatus
                0x00000000       0x40 ..\obj\stm32f4xx_rcc.o
 .text.RCC_ClearITPendingBit
                0x00000000       0x20 ..\obj\stm32f4xx_rcc.o
 .text          0x00000000        0x0 ..\obj\tm_stm32f4_usart.o
 .data          0x00000000        0x0 ..\obj\tm_stm32f4_usart.o
 .text.TM_USART_BufferEmpty
                0x00000000       0x20 ..\obj\tm_stm32f4_usart.o
 .text          0x00000000        0x0 ..\obj\tm_stm32f4_delay.o
 .data          0x00000000        0x0 ..\obj\tm_stm32f4_delay.o
 .text.Delay    0x00000000       0x30 ..\obj\tm_stm32f4_delay.o
 .text.Delayms  0x00000000       0x38 ..\obj\tm_stm32f4_delay.o
 .text          0x00000000        0x0 ..\obj\stm32f4xx_gpio.o
 .data          0x00000000        0x0 ..\obj\stm32f4xx_gpio.o
 .bss           0x00000000        0x0 ..\obj\stm32f4xx_gpio.o
 .text.GPIO_DeInit
                0x00000000      0x178 ..\obj\stm32f4xx_gpio.o
 .text.GPIO_StructInit
                0x00000000       0x3c ..\obj\stm32f4xx_gpio.o
 .text.GPIO_PinLockConfig
                0x00000000       0x44 ..\obj\stm32f4xx_gpio.o
 .text.GPIO_ReadInputDataBit
                0x00000000       0x3c ..\obj\stm32f4xx_gpio.o
 .text.GPIO_ReadInputData
                0x00000000       0x1c ..\obj\stm32f4xx_gpio.o
 .text.GPIO_ReadOutputDataBit
                0x00000000       0x3c ..\obj\stm32f4xx_gpio.o
 .text.GPIO_ReadOutputData
                0x00000000       0x1c ..\obj\stm32f4xx_gpio.o
 .text.GPIO_SetBits
                0x00000000       0x1c ..\obj\stm32f4xx_gpio.o
 .text.GPIO_ResetBits
                0x00000000       0x1c ..\obj\stm32f4xx_gpio.o
 .text.GPIO_WriteBit
                0x00000000       0x30 ..\obj\stm32f4xx_gpio.o
 .text.GPIO_Write
                0x00000000       0x1c ..\obj\stm32f4xx_gpio.o
 .text.GPIO_ToggleBits
                0x00000000       0x24 ..\obj\stm32f4xx_gpio.o
 .text          0x00000000        0x0 ..\obj\system_stm32f4xx.o
 .bss           0x00000000        0x0 ..\obj\system_stm32f4xx.o
 .text.SystemCoreClockUpdate
                0x00000000      0x170 ..\obj\system_stm32f4xx.o
 .text          0x00000000        0x0 ..\obj\misc.o
 .data          0x00000000        0x0 ..\obj\misc.o
 .bss           0x00000000        0x0 ..\obj\misc.o
 .text.NVIC_PriorityGroupConfig
                0x00000000       0x28 ..\obj\misc.o
 .text.NVIC_SetVectorTable
                0x00000000       0x2c ..\obj\misc.o
 .text.NVIC_SystemLPConfig
                0x00000000       0x54 ..\obj\misc.o
 .text.SysTick_CLKSourceConfig
                0x00000000       0x4c ..\obj\misc.o

Memory Configuration

Name             Origin             Length             Attributes
rom              0x08000000         0x00100000         xr
ram              0x20000000         0x00020000         xrw
ram1             0x10000000         0x00010000         xrw
*default*        0x00000000         0xffffffff

Linker script and memory map

                0x20020000                _eram = 0x20020000

.text           0x08000000     0x1294
 *(.isr_vector)
 .isr_vector    0x08000000      0x188 ..\obj\startup_stm32f4xx.o
                0x08000000                g_pfnVectors
 *(.text*)
 .text.USART_Init
                0x08000188      0x1ac ..\obj\stm32f4xx_usart.o
                0x08000188                USART_Init
 .text.USART_Cmd
                0x08000334       0x40 ..\obj\stm32f4xx_usart.o
                0x08000334                USART_Cmd
 .text.USART_SendData
                0x08000374       0x28 ..\obj\stm32f4xx_usart.o
                0x08000374                USART_SendData
 .text.USART_ITConfig
                0x0800039c       0xa4 ..\obj\stm32f4xx_usart.o
                0x0800039c                USART_ITConfig
 .text.USART_GetFlagStatus
                0x08000440       0x40 ..\obj\stm32f4xx_usart.o
                0x08000440                USART_GetFlagStatus
 .text.USART_GetITStatus
                0x08000480       0xc4 ..\obj\stm32f4xx_usart.o
                0x08000480                USART_GetITStatus
 .text.Default_Reset_Handler
                0x08000544       0x6c ..\obj\startup_stm32f4xx.o
                0x08000544                Default_Reset_Handler
                0x08000544                Reset_Handler
 .text.Default_Handler
                0x080005b0        0x8 ..\obj\startup_stm32f4xx.o
                0x080005b0                RTC_Alarm_IRQHandler
                0x080005b0                HASH_RNG_IRQHandler
                0x080005b0                EXTI2_IRQHandler
                0x080005b0                TIM8_CC_IRQHandler
                0x080005b0                DebugMon_Handler
                0x080005b0                TIM1_CC_IRQHandler
                0x080005b0                DMA2_Stream5_IRQHandler
                0x080005b0                HardFault_Handler
                0x080005b0                DMA1_Stream5_IRQHandler
                0x080005b0                PVD_IRQHandler
                0x080005b0                SDIO_IRQHandler
                0x080005b0                TAMP_STAMP_IRQHandler
                0x080005b0                PendSV_Handler
                0x080005b0                NMI_Handler
                0x080005b0                CAN2_RX1_IRQHandler
                0x080005b0                EXTI3_IRQHandler
                0x080005b0                TIM8_TRG_COM_TIM14_IRQHandler
                0x080005b0                TIM1_UP_TIM10_IRQHandler
                0x080005b0                TIM8_UP_TIM13_IRQHandler
                0x080005b0                I2C3_ER_IRQHandler
                0x080005b0                EXTI0_IRQHandler
                0x080005b0                I2C2_EV_IRQHandler
                0x080005b0                DMA1_Stream2_IRQHandler
                0x080005b0                CAN1_RX0_IRQHandler
                0x080005b0                FPU_IRQHandler
                0x080005b0                OTG_HS_WKUP_IRQHandler
                0x080005b0                UsageFault_Handler
                0x080005b0                CAN2_SCE_IRQHandler
                0x080005b0                DMA2_Stream2_IRQHandler
                0x080005b0                SPI1_IRQHandler
                0x080005b0                TIM6_DAC_IRQHandler
                0x080005b0                TIM1_BRK_TIM9_IRQHandler
                0x080005b0                DCMI_IRQHandler
                0x080005b0                CAN2_RX0_IRQHandler
                0x080005b0                DMA2_Stream3_IRQHandler
                0x080005b0                USART6_IRQHandler
                0x080005b0                USART3_IRQHandler
                0x080005b0                CRYP_IRQHandler
                0x080005b0                CAN1_RX1_IRQHandler
                0x080005b0                UART5_IRQHandler
                0x080005b0                DMA2_Stream0_IRQHandler
                0x080005b0                TIM4_IRQHandler
                0x080005b0                I2C1_EV_IRQHandler
                0x080005b0                DMA1_Stream6_IRQHandler
                0x080005b0                DMA1_Stream1_IRQHandler
                0x080005b0                UART4_IRQHandler
                0x080005b0                TIM3_IRQHandler
                0x080005b0                RCC_IRQHandler
                0x080005b0                TIM8_BRK_TIM12_IRQHandler
                0x080005b0                EXTI15_10_IRQHandler
                0x080005b0                ADC_IRQHandler
                0x080005b0                DMA1_Stream7_IRQHandler
                0x080005b0                TIM7_IRQHandler
                0x080005b0                CAN2_TX_IRQHandler
                0x080005b0                TIM5_IRQHandler
                0x080005b0                DMA2_Stream7_IRQHandler
                0x080005b0                I2C3_EV_IRQHandler
                0x080005b0                EXTI9_5_IRQHandler
                0x080005b0                RTC_WKUP_IRQHandler
                0x080005b0                ETH_WKUP_IRQHandler
                0x080005b0                SPI2_IRQHandler
                0x080005b0                OTG_HS_EP1_IN_IRQHandler
                0x080005b0                MemManage_Handler
                0x080005b0                DMA1_Stream0_IRQHandler
                0x080005b0                CAN1_TX_IRQHandler
                0x080005b0                SVC_Handler
                0x080005b0                EXTI4_IRQHandler
                0x080005b0                FSMC_IRQHandler
                0x080005b0                ETH_IRQHandler
                0x080005b0                OTG_HS_EP1_OUT_IRQHandler
                0x080005b0                WWDG_IRQHandler
                0x080005b0                TIM2_IRQHandler
                0x080005b0                OTG_FS_WKUP_IRQHandler
                0x080005b0                TIM1_TRG_COM_TIM11_IRQHandler
                0x080005b0                OTG_HS_IRQHandler
                0x080005b0                EXTI1_IRQHandler
                0x080005b0                USART2_IRQHandler
                0x080005b0                I2C2_ER_IRQHandler
                0x080005b0                DMA2_Stream1_IRQHandler
                0x080005b0                CAN1_SCE_IRQHandler
                0x080005b0                FLASH_IRQHandler
                0x080005b0                DMA2_Stream4_IRQHandler
                0x080005b0                BusFault_Handler
                0x080005b0                OTG_FS_IRQHandler
                0x080005b0                SPI3_IRQHandler
                0x080005b0                DMA1_Stream4_IRQHandler
                0x080005b0                I2C1_ER_IRQHandler
                0x080005b0                DMA2_Stream6_IRQHandler
                0x080005b0                DMA1_Stream3_IRQHandler
 .text.main     0x080005b8       0x40 ..\obj\main.o
                0x080005b8                main
 .text.RCC_HSEConfig
                0x080005f8       0x30 ..\obj\stm32f4xx_rcc.o
                0x080005f8                RCC_HSEConfig
 .text.RCC_WaitForHSEStartUp
                0x08000628       0x64 ..\obj\stm32f4xx_rcc.o
                0x08000628                RCC_WaitForHSEStartUp
 .text.RCC_GetClocksFreq
                0x0800068c      0x1cc ..\obj\stm32f4xx_rcc.o
                0x0800068c                RCC_GetClocksFreq
 .text.RCC_AHB1PeriphClockCmd
                0x08000858       0x54 ..\obj\stm32f4xx_rcc.o
                0x08000858                RCC_AHB1PeriphClockCmd
 .text.RCC_APB2PeriphClockCmd
                0x080008ac       0x54 ..\obj\stm32f4xx_rcc.o
                0x080008ac                RCC_APB2PeriphClockCmd
 .text.RCC_GetFlagStatus
                0x08000900       0x90 ..\obj\stm32f4xx_rcc.o
                0x08000900                RCC_GetFlagStatus
 .text.TM_USART_Init
                0x08000990      0x104 ..\obj\tm_stm32f4_usart.o
                0x08000990                TM_USART_Init
 .text.TM_USART_Putc
                0x08000a94       0x3c ..\obj\tm_stm32f4_usart.o
                0x08000a94                TM_USART_Putc
 .text.TM_USART_Puts
                0x08000ad0       0x2c ..\obj\tm_stm32f4_usart.o
                0x08000ad0                TM_USART_Puts
 .text.USART1_IRQHandler
                0x08000afc       0x30 ..\obj\tm_stm32f4_usart.o
                0x08000afc                USART1_IRQHandler
 .text.TM_USART_InsertToBuffer
                0x08000b2c       0x8c ..\obj\tm_stm32f4_usart.o
                0x08000b2c                TM_USART_InsertToBuffer
 .text.TM_USART_Getc
                0x08000bb8       0xac ..\obj\tm_stm32f4_usart.o
                0x08000bb8                TM_USART_Getc
 .text.NVIC_SetPriority
                0x08000c64       0x5c ..\obj\tm_stm32f4_delay.o
 .text.SysTick_Config
                0x08000cc0       0x64 ..\obj\tm_stm32f4_delay.o
 .text.SysTick_Handler
                0x08000d24       0x30 ..\obj\tm_stm32f4_delay.o
                0x08000d24                SysTick_Handler
 .text.TM_DELAY_Init
                0x08000d54       0x44 ..\obj\tm_stm32f4_delay.o
                0x08000d54                TM_DELAY_Init
 .text.GPIO_Init
                0x08000d98      0x144 ..\obj\stm32f4xx_gpio.o
                0x08000d98                GPIO_Init
 .text.GPIO_PinAFConfig
                0x08000edc       0xa8 ..\obj\stm32f4xx_gpio.o
                0x08000edc                GPIO_PinAFConfig
 .text.SystemInit
                0x08000f84       0x94 ..\obj\system_stm32f4xx.o
                0x08000f84                SystemInit
 .text.SetSysClock
                0x08001018      0x188 ..\obj\system_stm32f4xx.o
 .text.NVIC_Init
                0x080011a0       0xe4 ..\obj\misc.o
                0x080011a0                NVIC_Init
 *(.init)
 *(.fini)
 *crtbegin.o(.ctors)
 *crtbegin?.o(.ctors)
 *(EXCLUDE_FILE(*crtend.o *crtend?.o) .ctors)
 *(SORT(.ctors.*))
 *(.ctors)
 *crtbegin.o(.dtors)
 *crtbegin?.o(.dtors)
 *(EXCLUDE_FILE(*crtend.o *crtend?.o) .dtors)
 *(SORT(.dtors.*))
 *(.dtors)
 *(.rodata*)
 .rodata        0x08001284       0x10 ..\obj\main.o
 *(.eh_fram e*)

.glue_7         0x08001294        0x0
 .glue_7        0x00000000        0x0 linker stubs

.glue_7t        0x08001294        0x0
 .glue_7t       0x00000000        0x0 linker stubs

.vfp11_veneer   0x08001294        0x0
 .vfp11_veneer  0x00000000        0x0 linker stubs

.v4_bx          0x08001294        0x0
 .v4_bx         0x00000000        0x0 linker stubs

.iplt           0x08001294        0x0
 .iplt          0x00000000        0x0 ..\obj\stm32f4xx_usart.o

.rel.dyn        0x08001294        0x0
 .rel.iplt      0x00000000        0x0 ..\obj\stm32f4xx_usart.o

.ARM.extab
 *(.ARM.extab* .gnu.linkonce.armextab.*)
                0x08001294                __exidx_start = .

.ARM.exidx
 *(.ARM.exidx* .gnu.linkonce.armexidx.*)
                0x08001294                __exidx_end = .
                0x08001294                __etext = .
                0x08001294                _sidata = __etext

.data           0x20000000       0x24 load address 0x08001294
                0x20000000                __data_start__ = .
                0x20000000                _sdata = __data_start__
 *(vtable)
 *(.data*)
 .data          0x20000000       0x10 ..\obj\stm32f4xx_rcc.o
 .data          0x20000010       0x14 ..\obj\system_stm32f4xx.o
                0x20000010                SystemCoreClock
                0x20000014                AHBPrescTable
                0x20000024                . = ALIGN (0x4)
                0x20000024                PROVIDE (__preinit_array_start, .)
 *(.preinit_array)
                0x20000024                PROVIDE (__preinit_array_end, .)
                0x20000024                . = ALIGN (0x4)
                0x20000024                PROVIDE (__init_array_start, .)
 *(SORT(.init_array.*))
 *(.init_array)
                0x20000024                PROVIDE (__init_array_end, .)
                0x20000024                . = ALIGN (0x4)
                0x20000024                PROVIDE (__fini_array_start, .)
 *(SORT(.fini_array.*))
 *(.fini_array)
                0x20000024                PROVIDE (__fini_array_end, .)
 *(.jcr*)
                0x20000024                . = ALIGN (0x4)
                0x20000024                __data_end__ = .
                0x20000024                _edata = __data_end__

.igot.plt       0x20000024        0x0 load address 0x080012b8
 .igot.plt      0x00000000        0x0 ..\obj\stm32f4xx_usart.o

.bss            0x20000024       0x2c load address 0x080012b8
                0x20000024                . = ALIGN (0x4)
                0x20000024                __bss_start__ = .
                0x20000024                _sbss = __bss_start__
 *(.bss*)
 .bss           0x20000024        0x6 ..\obj\tm_stm32f4_usart.o
                0x20000024                tm_usart_buf_in
                0x20000026                tm_usart_buf_out
                0x20000028                tm_usart_buf_num
 *fill*         0x2000002a        0x2 00
 .bss           0x2000002c        0x4 ..\obj\tm_stm32f4_delay.o
 *(COMMON)
 COMMON         0x20000030       0x20 ..\obj\tm_stm32f4_usart.o
                0x20000030                TM_USART_Buffer
                0x20000050                . = ALIGN (0x4)
                0x20000050                __bss_end__ = .
                0x20000050                _ebss = __bss_end__

.heap           0x20000050        0x0
                0x20000050                __end__ = .
                0x20000050                _end = __end__
                0x20000050                end = __end__
 *(.heap*)
                0x20000050                __HeapLimit = .

.co_stack       0x20000050      0x800 load address 0x080012e4
                0x20000050                . = ALIGN (0x8)
 *(.co_stack .co_stack.*)
 .co_stack      0x20000050      0x800 ..\obj\startup_stm32f4xx.o
                0x20000050                pulStack
                0x20020000                __StackTop = (ORIGIN (ram) + 0x20000)
                0x2001f800                __StackLimit = (__StackTop - SIZEOF (.co_stack))
                0x20020000                PROVIDE (__stack, __StackTop)
                0x00000001                ASSERT ((__StackLimit >= __HeapLimit), region ram  overflowed with stack)
LOAD ..\obj\stm32f4xx_usart.o
LOAD ..\obj\tm_stm32f4_disco.o
LOAD ..\obj\startup_stm32f4xx.o
LOAD ..\obj\main.o
LOAD ..\obj\stm32f4xx_rcc.o
LOAD ..\obj\tm_stm32f4_usart.o
LOAD ..\obj\tm_stm32f4_delay.o
LOAD ..\obj\stm32f4xx_gpio.o
LOAD ..\obj\system_stm32f4xx.o
LOAD ..\obj\misc.o
START GROUP
LOAD c:/program files (x86)/gnu tools arm embedded/4.7 2013q3/bin/../lib/gcc/arm-none-eabi/4.7.4/armv7e-m\libgcc.a
LOAD c:/program files (x86)/gnu tools arm embedded/4.7 2013q3/bin/../lib/gcc/arm-none-eabi/4.7.4/../../../../arm-none-eabi/lib/armv7e-m\libg.a
LOAD c:/program files (x86)/gnu tools arm embedded/4.7 2013q3/bin/../lib/gcc/arm-none-eabi/4.7.4/../../../../arm-none-eabi/lib/armv7e-m\libc.a
END GROUP
OUTPUT(STM32F429_USART.elf elf32-littlearm)

.debug_info     0x00000000     0x3ab4
 .debug_info    0x00000000      0xa65 ..\obj\stm32f4xx_usart.o
 .debug_info    0x00000a65      0x103 ..\obj\startup_stm32f4xx.o
 .debug_info    0x00000b68       0xe8 ..\obj\main.o
 .debug_info    0x00000c50      0xd49 ..\obj\stm32f4xx_rcc.o
 .debug_info    0x00001999      0x800 ..\obj\tm_stm32f4_usart.o
 .debug_info    0x00002199      0x754 ..\obj\tm_stm32f4_delay.o
 .debug_info    0x000028ed      0x640 ..\obj\stm32f4xx_gpio.o
 .debug_info    0x00002f2d      0x5f5 ..\obj\system_stm32f4xx.o
 .debug_info    0x00003522      0x592 ..\obj\misc.o

.debug_abbrev   0x00000000      0xbc4
 .debug_abbrev  0x00000000      0x157 ..\obj\stm32f4xx_usart.o
 .debug_abbrev  0x00000157       0xb2 ..\obj\startup_stm32f4xx.o
 .debug_abbrev  0x00000209       0x89 ..\obj\main.o
 .debug_abbrev  0x00000292      0x1e5 ..\obj\stm32f4xx_rcc.o
 .debug_abbrev  0x00000477      0x1bf ..\obj\tm_stm32f4_usart.o
 .debug_abbrev  0x00000636      0x188 ..\obj\tm_stm32f4_delay.o
 .debug_abbrev  0x000007be      0x1a5 ..\obj\stm32f4xx_gpio.o
 .debug_abbrev  0x00000963      0x138 ..\obj\system_stm32f4xx.o
 .debug_abbrev  0x00000a9b      0x129 ..\obj\misc.o

.debug_loc      0x00000000     0x17dc
 .debug_loc     0x00000000      0x658 ..\obj\stm32f4xx_usart.o
 .debug_loc     0x00000658       0x64 ..\obj\startup_stm32f4xx.o
 .debug_loc     0x000006bc       0x38 ..\obj\main.o
 .debug_loc     0x000006f4      0x97c ..\obj\stm32f4xx_rcc.o
 .debug_loc     0x00001070      0x170 ..\obj\tm_stm32f4_usart.o
 .debug_loc     0x000011e0      0x138 ..\obj\tm_stm32f4_delay.o
 .debug_loc     0x00001318      0x310 ..\obj\stm32f4xx_gpio.o
 .debug_loc     0x00001628       0x9c ..\obj\system_stm32f4xx.o
 .debug_loc     0x000016c4      0x118 ..\obj\misc.o

.debug_aranges  0x00000000      0x450
 .debug_aranges
                0x00000000      0x100 ..\obj\stm32f4xx_usart.o
 .debug_aranges
                0x00000100       0x28 ..\obj\startup_stm32f4xx.o
 .debug_aranges
                0x00000128       0x20 ..\obj\main.o
 .debug_aranges
                0x00000148      0x178 ..\obj\stm32f4xx_rcc.o
 .debug_aranges
                0x000002c0       0x50 ..\obj\tm_stm32f4_usart.o
 .debug_aranges
                0x00000310       0x48 ..\obj\tm_stm32f4_delay.o
 .debug_aranges
                0x00000358       0x88 ..\obj\stm32f4xx_gpio.o
 .debug_aranges
                0x000003e0       0x30 ..\obj\system_stm32f4xx.o
 .debug_aranges
                0x00000410       0x40 ..\obj\misc.o

.debug_ranges   0x00000000      0x3c0
 .debug_ranges  0x00000000       0xf0 ..\obj\stm32f4xx_usart.o
 .debug_ranges  0x000000f0       0x18 ..\obj\startup_stm32f4xx.o
 .debug_ranges  0x00000108       0x10 ..\obj\main.o
 .debug_ranges  0x00000118      0x168 ..\obj\stm32f4xx_rcc.o
 .debug_ranges  0x00000280       0x40 ..\obj\tm_stm32f4_usart.o
 .debug_ranges  0x000002c0       0x38 ..\obj\tm_stm32f4_delay.o
 .debug_ranges  0x000002f8       0x78 ..\obj\stm32f4xx_gpio.o
 .debug_ranges  0x00000370       0x20 ..\obj\system_stm32f4xx.o
 .debug_ranges  0x00000390       0x30 ..\obj\misc.o

.debug_line     0x00000000     0x1cb9
 .debug_line    0x00000000      0x52f ..\obj\stm32f4xx_usart.o
 .debug_line    0x0000052f       0xcf ..\obj\startup_stm32f4xx.o
 .debug_line    0x000005fe      0x1fb ..\obj\main.o
 .debug_line    0x000007f9      0x626 ..\obj\stm32f4xx_rcc.o
 .debug_line    0x00000e1f      0x344 ..\obj\tm_stm32f4_usart.o
 .debug_line    0x00001163      0x2a4 ..\obj\tm_stm32f4_delay.o
 .debug_line    0x00001407      0x3ca ..\obj\stm32f4xx_gpio.o
 .debug_line    0x000017d1      0x218 ..\obj\system_stm32f4xx.o
 .debug_line    0x000019e9      0x2d0 ..\obj\misc.o

.debug_str      0x00000000     0x1ae5
 .debug_str     0x00000000      0x5f4 ..\obj\stm32f4xx_usart.o
                                0x660 (size before relaxing)
 .debug_str     0x000005f4       0xde ..\obj\startup_stm32f4xx.o
                                0x142 (size before relaxing)
 .debug_str     0x000006d2       0x71 ..\obj\main.o
                                0x16d (size before relaxing)
 .debug_str     0x00000743      0x611 ..\obj\stm32f4xx_rcc.o
                                0x821 (size before relaxing)
 .debug_str     0x00000d54      0x842 ..\obj\tm_stm32f4_usart.o
                                0xa4d (size before relaxing)
 .debug_str     0x00001596      0x17b ..\obj\tm_stm32f4_delay.o
                                0x7c9 (size before relaxing)
 .debug_str     0x00001711      0x1c1 ..\obj\stm32f4xx_gpio.o
                                0x474 (size before relaxing)
 .debug_str     0x000018d2       0xe2 ..\obj\system_stm32f4xx.o
                                0x37b (size before relaxing)
 .debug_str     0x000019b4      0x131 ..\obj\misc.o
                                0x3aa (size before relaxing)

.comment        0x00000000       0x70
 .comment       0x00000000       0x70 ..\obj\stm32f4xx_usart.o
                                 0x71 (size before relaxing)
 .comment       0x00000000       0x71 ..\obj\startup_stm32f4xx.o
 .comment       0x00000000       0x71 ..\obj\main.o
 .comment       0x00000000       0x71 ..\obj\stm32f4xx_rcc.o
 .comment       0x00000000       0x71 ..\obj\tm_stm32f4_usart.o
 .comment       0x00000000       0x71 ..\obj\tm_stm32f4_delay.o
 .comment       0x00000000       0x71 ..\obj\stm32f4xx_gpio.o
 .comment       0x00000000       0x71 ..\obj\system_stm32f4xx.o
 .comment       0x00000000       0x71 ..\obj\misc.o

.ARM.attributes
                0x00000000       0x33
 .ARM.attributes
                0x00000000       0x33 ..\obj\stm32f4xx_usart.o
 .ARM.attributes
                0x00000033       0x33 ..\obj\startup_stm32f4xx.o
 .ARM.attributes
                0x00000066       0x33 ..\obj\main.o
 .ARM.attributes
                0x00000099       0x33 ..\obj\stm32f4xx_rcc.o
 .ARM.attributes
                0x000000cc       0x33 ..\obj\tm_stm32f4_usart.o
 .ARM.attributes
                0x000000ff       0x33 ..\obj\tm_stm32f4_delay.o
 .ARM.attributes
                0x00000132       0x33 ..\obj\stm32f4xx_gpio.o
 .ARM.attributes
                0x00000165       0x33 ..\obj\system_stm32f4xx.o
 .ARM.attributes
                0x00000198       0x33 ..\obj\misc.o

.debug_frame    0x00000000      0xcc4
 .debug_frame   0x00000000      0x344 ..\obj\stm32f4xx_usart.o
 .debug_frame   0x00000344       0x48 ..\obj\startup_stm32f4xx.o
 .debug_frame   0x0000038c       0x30 ..\obj\main.o
 .debug_frame   0x000003bc      0x4d8 ..\obj\stm32f4xx_rcc.o
 .debug_frame   0x00000894       0xdc ..\obj\tm_stm32f4_usart.o
 .debug_frame   0x00000970       0xb8 ..\obj\tm_stm32f4_delay.o
 .debug_frame   0x00000a28      0x19c ..\obj\stm32f4xx_gpio.o
 .debug_frame   0x00000bc4       0x64 ..\obj\system_stm32f4xx.o
 .debug_frame   0x00000c28       0x9c ..\obj\misc.o
